; Function Attrs: mustprogress uwtable
define noundef nonnull align 8 dereferenceable(64) ptr @_ZNK6icu_7518CurrencyPluralInfo24getCurrencyPluralPatternERKNS_13UnicodeStringERS1_(ptr nocapture noundef nonnull readonly align 8 dereferenceable(36) %this, ptr noundef nonnull align 8 dereferenceable(64) %pluralCount, ptr noundef nonnull returned align 8 dereferenceable(64) %result) local_unnamed_addr #1 align 2 personality ptr @__gxx_personality_v0 {
entry:
  %ref.tmp = alloca %"class.icu_75::UnicodeString", align 8
  %agg.tmp5 = alloca %"class.icu_75::ConstChar16Ptr", align 8
  %ref.tmp13 = alloca %"class.icu_75::UnicodeString", align 8
  %fPluralCountToCurrencyUnitPattern = getelementptr inbounds i8, ptr %this, i64 8
  %0 = load ptr, ptr %fPluralCountToCurrencyUnitPattern, align 8
  %1 = load ptr, ptr %0, align 8
  %call.i = tail call noundef ptr @uhash_get_75(ptr noundef %1, ptr noundef nonnull %pluralCount)
  %cmp = icmp eq ptr %call.i, null
  br i1 %cmp, label %if.then, label %if.end16

if.then:                                          ; preds = %entry
  %fUnion.i.i.i = getelementptr inbounds i8, ptr %pluralCount, i64 8
  %2 = load i16, ptr %fUnion.i.i.i, align 8
  %cmp.i.i.i = icmp slt i16 %2, 0
  %3 = ashr i16 %2, 5
  %shr.i.i.i = sext i16 %3 to i32
  %fLength.i.i = getelementptr inbounds i8, ptr %pluralCount, i64 12
  %4 = load i32, ptr %fLength.i.i, align 4
  %cond.i.i = select i1 %cmp.i.i.i, i32 %4, i32 %shr.i.i.i
  %call3.i9 = invoke noundef signext i8 @_ZNK6icu_7513UnicodeString9doCompareEiiPKDsii(ptr noundef nonnull align 8 dereferenceable(64) %pluralCount, i32 noundef 0, i32 noundef %cond.i.i, ptr noundef nonnull @_ZN6icu_75L17gPluralCountOtherE, i32 noundef 0, i32 noundef 5)
          to label %invoke.cont unwind label %lpad

invoke.cont:                                      ; preds = %if.then
  %tobool.not = icmp eq i8 %call3.i9, 0
  tail call void asm sideeffect "", "rm,~{memory},~{dirflag},~{fpsr},~{flags}"(ptr nonnull @_ZN6icu_75L17gPluralCountOtherE) #10, !srcloc !6
  br i1 %tobool.not, label %if.then12, label %if.then3

if.then3:                                         ; preds = %invoke.cont
  %5 = load ptr, ptr %fPluralCountToCurrencyUnitPattern, align 8
  store ptr @_ZN6icu_75L17gPluralCountOtherE, ptr %agg.tmp5, align 8
  invoke void @_ZN6icu_7513UnicodeStringC1EaNS_14ConstChar16PtrEi(ptr noundef nonnull align 8 dereferenceable(64) %ref.tmp, i8 noundef signext 1, ptr noundef nonnull %agg.tmp5, i32 noundef 5)
          to label %invoke.cont7 unwind label %lpad6

invoke.cont7:                                     ; preds = %if.then3
  %6 = load ptr, ptr %5, align 8
  %call.i1011 = invoke noundef ptr @uhash_get_75(ptr noundef %6, ptr noundef nonnull %ref.tmp)
          to label %if.end unwind label %lpad8

lpad:                                             ; preds = %if.then
  %7 = landingpad { ptr, i32 }
          cleanup
  tail call void asm sideeffect "", "rm,~{memory},~{dirflag},~{fpsr},~{flags}"(ptr nonnull @_ZN6icu_75L17gPluralCountOtherE) #10, !srcloc !6
  br label %eh.resume

lpad6:                                            ; preds = %if.then3
  %8 = landingpad { ptr, i32 }
          cleanup
  br label %ehcleanup

lpad8:                                            ; preds = %invoke.cont7
  %9 = landingpad { ptr, i32 }
          cleanup
  call void @_ZN6icu_7513UnicodeStringD1Ev(ptr noundef nonnull align 8 dereferenceable(64) %ref.tmp) #10
  br label %ehcleanup

ehcleanup:                                        ; preds = %lpad8, %lpad6
  %.pn = phi { ptr, i32 } [ %9, %lpad8 ], [ %8, %lpad6 ]
  %10 = load ptr, ptr %agg.tmp5, align 8
  call void asm sideeffect "", "rm,~{memory},~{dirflag},~{fpsr},~{flags}"(ptr %10) #10, !srcloc !6
  br label %eh.resume

if.end:                                           ; preds = %invoke.cont7
  call void @_ZN6icu_7513UnicodeStringD1Ev(ptr noundef nonnull align 8 dereferenceable(64) %ref.tmp) #10
  %11 = load ptr, ptr %agg.tmp5, align 8
  call void asm sideeffect "", "rm,~{memory},~{dirflag},~{fpsr},~{flags}"(ptr %11) #10, !srcloc !6
  %cmp11 = icmp eq ptr %call.i1011, null
  br i1 %cmp11, label %if.then12, label %if.end16

if.then12:                                        ; preds = %invoke.cont, %if.end
  call void @_ZN6icu_7513UnicodeStringC1EPKDs(ptr noundef nonnull align 8 dereferenceable(64) %ref.tmp13, ptr noundef nonnull @_ZN6icu_75L29gDefaultCurrencyPluralPatternE)
  %call14 = call noundef nonnull align 8 dereferenceable(64) ptr @_ZN6icu_7513UnicodeStringaSEOS0_(ptr noundef nonnull align 8 dereferenceable(64) %result, ptr noundef nonnull align 8 dereferenceable(64) %ref.tmp13) #10
  call void @_ZN6icu_7513UnicodeStringD1Ev(ptr noundef nonnull align 8 dereferenceable(64) %ref.tmp13) #10
  br label %return

if.end16:                                         ; preds = %if.end, %entry
  %currencyPluralPattern.1 = phi ptr [ %call.i1011, %if.end ], [ %call.i, %entry ]
  %call17 = call noundef nonnull align 8 dereferenceable(64) ptr @_ZN6icu_7513UnicodeStringaSERKS0_(ptr noundef nonnull align 8 dereferenceable(64) %result, ptr noundef nonnull align 8 dereferenceable(64) %currencyPluralPattern.1)
  br label %return

return:                                           ; preds = %if.end16, %if.then12
  ret ptr %result

eh.resume:                                        ; preds = %ehcleanup, %lpad
  %.pn.pn = phi { ptr, i32 } [ %.pn, %ehcleanup ], [ %7, %lpad ]
  resume { ptr, i32 } %.pn.pn
}